target datalayout = "e-m:e-p270:32:32-p271:32:32-p272:64:64-i64:64-i128:128-f80:128-n8:16:32:64-S128"
target triple = "x86_64-pc-linux-gnu"

%union.pthread_mutex_t = type { %struct.__pthread_mutex_s }
%struct.__pthread_mutex_s = type { i32, i32, i32, i32, i32, i16, i16, %struct.__pthread_internal_list }
%struct.__pthread_internal_list = type { ptr, ptr }
%struct.cli_filter_ops = type { ptr, ptr, ptr }
%struct.timeval = type { i64, i64 }

@g_context_lock = internal global %union.pthread_mutex_t zeroinitializer, align 8
@.str.1 = private unnamed_addr constant [29 x i8] c"%s: pthread_mutex_lock(): %m\00", align 1
@g_context_cnt = internal global i32 -1, align 4
@ops = internal global ptr null, align 8
@.str.7 = private unnamed_addr constant [31 x i8] c"%s: pthread_mutex_unlock(): %m\00", align 1
@__func__.cli_filter_g_setup_defaults = private unnamed_addr constant [28 x i8] c"cli_filter_g_setup_defaults\00", align 1

; Function Attrs: nounwind uwtable
define dso_local i32 @cli_filter_g_setup_defaults(ptr noundef %0, i1 noundef zeroext %1) #0 {
  %3 = alloca i32, align 4
  %4 = alloca ptr, align 8
  %5 = alloca i8, align 1
  %6 = alloca %struct.timeval, align 8
  %7 = alloca %struct.timeval, align 8
  %8 = alloca [20 x i8], align 16
  %9 = alloca i64, align 8
  %10 = alloca i32, align 4
  %11 = alloca i32, align 4
  %12 = alloca i32, align 4
  %13 = alloca i32, align 4
  %14 = alloca i32, align 4
  store ptr %0, ptr %4, align 8
  %15 = zext i1 %1 to i8
  store i8 %15, ptr %5, align 1
  call void @llvm.lifetime.start.p0(i64 16, ptr %6) #7
  call void @llvm.lifetime.start.p0(i64 16, ptr %7) #7
  call void @llvm.lifetime.start.p0(i64 20, ptr %8) #7
  call void @llvm.memset.p0.i64(ptr align 16 %8, i8 0, i64 20, i1 false)
  call void @llvm.lifetime.start.p0(i64 8, ptr %9) #7
  call void @llvm.lifetime.start.p0(i64 4, ptr %10) #7
  call void @llvm.lifetime.start.p0(i64 4, ptr %11) #7
  store i32 0, ptr %11, align 4
  %16 = call i32 @gettimeofday(ptr noundef %6, ptr noundef null) #7
  %17 = load i32, ptr @g_context_cnt, align 4
  %18 = icmp ne i32 %17, 0
  br i1 %18, label %20, label %19

19:                                               ; preds = %2
  store i32 0, ptr %3, align 4
  store i32 1, ptr %12, align 4
  br label %71

20:                                               ; preds = %2
  br label %21

21:                                               ; preds = %20
  call void @llvm.lifetime.start.p0(i64 4, ptr %13) #7
  %22 = call i32 @pthread_mutex_lock(ptr noundef @g_context_lock) #7
  store i32 %22, ptr %13, align 4
  %23 = load i32, ptr %13, align 4
  %24 = icmp ne i32 %23, 0
  br i1 %24, label %25, label %28

25:                                               ; preds = %21
  %26 = load i32, ptr %13, align 4
  %27 = call ptr @__errno_location() #8
  store i32 %26, ptr %27, align 4
  call void (ptr, ...) @fatal_abort(ptr noundef @.str.1, ptr noundef @__func__.cli_filter_g_setup_defaults) #9
  unreachable

28:                                               ; preds = %21
  call void @llvm.lifetime.end.p0(i64 4, ptr %13) #7
  br label %29

29:                                               ; preds = %28
  br label %30

30:                                               ; preds = %29
  store i32 0, ptr %10, align 4
  br label %31

31:                                               ; preds = %51, %30
  %32 = load i32, ptr %10, align 4
  %33 = load i32, ptr @g_context_cnt, align 4
  %34 = icmp slt i32 %32, %33
  br i1 %34, label %35, label %38

35:                                               ; preds = %31
  %36 = load i32, ptr %11, align 4
  %37 = icmp eq i32 %36, 0
  br label %38

38:                                               ; preds = %35, %31
  %39 = phi i1 [ false, %31 ], [ %37, %35 ]
  br i1 %39, label %40, label %54

40:                                               ; preds = %38
  %41 = load ptr, ptr @ops, align 8
  %42 = load i32, ptr %10, align 4
  %43 = sext i32 %42 to i64
  %44 = getelementptr inbounds %struct.cli_filter_ops, ptr %41, i64 %43
  %45 = getelementptr inbounds nuw %struct.cli_filter_ops, ptr %44, i32 0, i32 0
  %46 = load ptr, ptr %45, align 8
  %47 = load ptr, ptr %4, align 8
  %48 = load i8, ptr %5, align 1, !range !12, !noundef !13
  %49 = trunc i8 %48 to i1
  %50 = call i32 %46(ptr noundef %47, i1 noundef zeroext %49)
  store i32 %50, ptr %11, align 4
  br label %51

51:                                               ; preds = %40
  %52 = load i32, ptr %10, align 4
  %53 = add nsw i32 %52, 1
  store i32 %53, ptr %10, align 4
  br label %31, !llvm.loop !14

54:                                               ; preds = %38
  br label %55

55:                                               ; preds = %54
  call void @llvm.lifetime.start.p0(i64 4, ptr %14) #7
  %56 = call i32 @pthread_mutex_unlock(ptr noundef @g_context_lock) #7
  store i32 %56, ptr %14, align 4
  %57 = load i32, ptr %14, align 4
  %58 = icmp ne i32 %57, 0
  br i1 %58, label %59, label %62

59:                                               ; preds = %55
  %60 = load i32, ptr %14, align 4
  %61 = call ptr @__errno_location() #8
  store i32 %60, ptr %61, align 4
  call void (ptr, ...) @fatal_abort(ptr noundef @.str.7, ptr noundef @__func__.cli_filter_g_setup_defaults) #9
  unreachable

62:                                               ; preds = %55
  call void @llvm.lifetime.end.p0(i64 4, ptr %14) #7
  br label %63

63:                                               ; preds = %62
  br label %64

64:                                               ; preds = %63
  br label %65

65:                                               ; preds = %64
  %66 = call i32 @gettimeofday(ptr noundef %7, ptr noundef null) #7
  %67 = getelementptr inbounds [20 x i8], ptr %8, i64 0, i64 0
  call void @slurm_diff_tv_str(ptr noundef %6, ptr noundef %7, ptr noundef %67, i32 noundef 20, ptr noundef @__func__.cli_filter_g_setup_defaults, i64 noundef 0, ptr noundef %9)
  br label %68

68:                                               ; preds = %65
  br label %69

69:                                               ; preds = %68
  %70 = load i32, ptr %11, align 4
  store i32 %70, ptr %3, align 4
  store i32 1, ptr %12, align 4
  br label %71

71:                                               ; preds = %69, %19
  call void @llvm.lifetime.end.p0(i64 4, ptr %11) #7
  call void @llvm.lifetime.end.p0(i64 4, ptr %10) #7
  call void @llvm.lifetime.end.p0(i64 8, ptr %9) #7
  call void @llvm.lifetime.end.p0(i64 20, ptr %8) #7
  call void @llvm.lifetime.end.p0(i64 16, ptr %7) #7
  call void @llvm.lifetime.end.p0(i64 16, ptr %6) #7
  %72 = load i32, ptr %3, align 4
  ret i32 %72
}